; Function Attrs: nounwind uwtable
define hidden noundef zeroext i1 @Wayland_StopTextInput(ptr noundef readonly captures(none) %0, ptr noundef readonly captures(none) %1) local_unnamed_addr #0 {
  %3 = getelementptr inbounds nuw i8, ptr %0, i64 1656
  %4 = load ptr, ptr %3, align 8
  %5 = getelementptr inbounds nuw i8, ptr %4, i64 144
  %6 = load ptr, ptr %5, align 8
  %.not = icmp eq ptr %6, null
  br i1 %.not, label %11, label %7

7:                                                ; preds = %2
  %8 = getelementptr inbounds nuw i8, ptr %1, i64 392
  %9 = load ptr, ptr %8, align 8
  %10 = getelementptr inbounds nuw i8, ptr %9, i64 360
  store i8 0, ptr %10, align 8
  tail call void @Wayland_UpdateTextInput(ptr noundef nonnull %4)
  br label %12

11:                                               ; preds = %2
  tail call void @SDL_IME_Reset() #5
  br label %12

12:                                               ; preds = %11, %7
  ret i1 true
}